; Function Attrs: nofree norecurse nosync nounwind memory(read, argmem: readwrite, inaccessiblemem: none) uwtable
define dso_local void @hdr_reset_internal_counters(ptr nocapture noundef %h) local_unnamed_addr #1 {
entry:
  %counts_len = getelementptr inbounds i8, ptr %h, i64 80
  %0 = load i32, ptr %counts_len, align 8
  %cmp37 = icmp sgt i32 %0, 0
  br i1 %cmp37, label %for.body.lr.ph, label %if.end12.thread

if.end12.thread:                                  ; preds = %entry
  %1 = getelementptr inbounds i8, ptr %h, i64 56
  store i64 0, ptr %1, align 8
  br label %if.end18

for.body.lr.ph:                                   ; preds = %entry
  %2 = getelementptr i8, ptr %h, i64 96
  %h.val = load ptr, ptr %2, align 8
  %wide.trip.count = zext nneg i32 %0 to i64
  br label %for.body

for.body:                                         ; preds = %for.body.lr.ph, %for.inc
  %indvars.iv = phi i64 [ 0, %for.body.lr.ph ], [ %indvars.iv.next, %for.inc ]
  %min_non_zero_index.041 = phi i32 [ -1, %for.body.lr.ph ], [ %min_non_zero_index.1, %for.inc ]
  %max_index.040 = phi i32 [ -1, %for.body.lr.ph ], [ %max_index.1, %for.inc ]
  %observed_total_count.038 = phi i64 [ 0, %for.body.lr.ph ], [ %observed_total_count.1, %for.inc ]
  %arrayidx.i = getelementptr inbounds i64, ptr %h.val, i64 %indvars.iv
  %3 = load i64, ptr %arrayidx.i, align 8
  %cmp1 = icmp sgt i64 %3, 0
  br i1 %cmp1, label %if.then, label %for.inc

if.then:                                          ; preds = %for.body
  %add = add nuw nsw i64 %3, %observed_total_count.038
  %cmp2 = icmp eq i32 %min_non_zero_index.041, -1
  %cmp3 = icmp ne i64 %indvars.iv, 0
  %or.cond = and i1 %cmp3, %cmp2
  %4 = trunc i64 %indvars.iv to i32
  %spec.select = select i1 %or.cond, i32 %4, i32 %min_non_zero_index.041
  br label %for.inc

for.inc:                                          ; preds = %if.then, %for.body
  %observed_total_count.1 = phi i64 [ %observed_total_count.038, %for.body ], [ %add, %if.then ]
  %max_index.1 = phi i32 [ %max_index.040, %for.body ], [ %4, %if.then ]
  %min_non_zero_index.1 = phi i32 [ %min_non_zero_index.041, %for.body ], [ %spec.select, %if.then ]
  %indvars.iv.next = add nuw nsw i64 %indvars.iv, 1
  %exitcond.not = icmp eq i64 %indvars.iv.next, %wide.trip.count
  br i1 %exitcond.not, label %for.end, label %for.body

for.end:                                          ; preds = %for.inc
  %cmp6 = icmp eq i32 %max_index.1, -1
  br i1 %cmp6, label %if.end12, label %if.else

if.else:                                          ; preds = %for.end
  %sub_bucket_half_count_magnitude.i = getelementptr inbounds i8, ptr %h, i64 24
  %5 = load i32, ptr %sub_bucket_half_count_magnitude.i, align 8
  %shr.i = ashr i32 %max_index.1, %5
  %sub.i = add nsw i32 %shr.i, -1
  %sub_bucket_half_count.i = getelementptr inbounds i8, ptr %h, i64 28
  %6 = load i32, ptr %sub_bucket_half_count.i, align 4
  %sub1.i = add nsw i32 %6, -1
  %and.i = and i32 %sub1.i, %max_index.1
  %cmp.i = icmp slt i32 %shr.i, 1
  %spec.select.i = select i1 %cmp.i, i32 0, i32 %sub.i
  %add.i = select i1 %cmp.i, i32 0, i32 %6
  %spec.select8.i = add nsw i32 %and.i, %add.i
  %unit_magnitude.i = getelementptr inbounds i8, ptr %h, i64 16
  %7 = load i32, ptr %unit_magnitude.i, align 8
  %conv.i.i = sext i32 %spec.select8.i to i64
  %add.i.i = add nsw i32 %spec.select.i, %7
  %sh_prom.i.i = zext nneg i32 %add.i.i to i64
  %shl.i.i = shl i64 %conv.i.i, %sh_prom.i.i
  %sub_bucket_mask.i.i.i.i = getelementptr inbounds i8, ptr %h, i64 32
  %8 = load i64, ptr %sub_bucket_mask.i.i.i.i, align 8
  %or.i.i.i.i = or i64 %shl.i.i, %8
  %9 = tail call i64 @llvm.ctlz.i64(i64 %or.i.i.i.i, i1 true), !range !5
  %cast.i.i.i.i.i = trunc i64 %9 to i32
  %10 = add i32 %5, %cast.i.i.i.i.i
  %add.i.i.i.i = sub i32 63, %10
  %sh_prom.i.i.i.i = zext nneg i32 %add.i.i.i.i to i64
  %shr.i.i.i.i = ashr i64 %shl.i.i, %sh_prom.i.i.i.i
  %sext.i.i.i = shl i64 %shr.i.i.i.i, 32
  %conv.i5.i.i.i = ashr exact i64 %sext.i.i.i, 32
  %shl.i.i.i.i = shl i64 %conv.i5.i.i.i, %sh_prom.i.i.i.i
  %conv.i.i.i.i = trunc i64 %shr.i.i.i.i to i32
  %sub_bucket_count.i.i.i = getelementptr inbounds i8, ptr %h, i64 40
  %11 = load i32, ptr %sub_bucket_count.i.i.i, align 8
  %cmp.not.i.i.i = icmp sle i32 %11, %conv.i.i.i.i
  %add.i.i.i = zext i1 %cmp.not.i.i.i to i32
  %add3.i.i.i = add i32 %add.i.i.i.i, %add.i.i.i
  %sh_prom.i.i.i = zext nneg i32 %add3.i.i.i to i64
  %shl.i.i.i = shl nuw i64 1, %sh_prom.i.i.i
  %add.i.i19 = add i64 %shl.i.i.i.i, -1
  %sub.i20 = add i64 %add.i.i19, %shl.i.i.i
  br label %if.end12

if.end12:                                         ; preds = %for.end, %if.else
  %sub.i20.sink = phi i64 [ %sub.i20, %if.else ], [ 0, %for.end ]
  %12 = getelementptr inbounds i8, ptr %h, i64 56
  store i64 %sub.i20.sink, ptr %12, align 8
  %cmp13 = icmp eq i32 %min_non_zero_index.1, -1
  br i1 %cmp13, label %if.end18, label %if.else15

if.else15:                                        ; preds = %if.end12
  %sub_bucket_half_count_magnitude.i21 = getelementptr inbounds i8, ptr %h, i64 24
  %13 = load i32, ptr %sub_bucket_half_count_magnitude.i21, align 8
  %shr.i22 = ashr i32 %min_non_zero_index.1, %13
  %sub.i23 = add nsw i32 %shr.i22, -1
  %sub_bucket_half_count.i24 = getelementptr inbounds i8, ptr %h, i64 28
  %14 = load i32, ptr %sub_bucket_half_count.i24, align 4
  %sub1.i25 = add nsw i32 %14, -1
  %and.i26 = and i32 %sub1.i25, %min_non_zero_index.1
  %cmp.i27 = icmp slt i32 %shr.i22, 1
  %spec.select.i28 = select i1 %cmp.i27, i32 0, i32 %sub.i23
  %add.i29 = select i1 %cmp.i27, i32 0, i32 %14
  %spec.select8.i30 = add nsw i32 %and.i26, %add.i29
  %unit_magnitude.i31 = getelementptr inbounds i8, ptr %h, i64 16
  %15 = load i32, ptr %unit_magnitude.i31, align 8
  %conv.i.i32 = sext i32 %spec.select8.i30 to i64
  %add.i.i33 = add nsw i32 %spec.select.i28, %15
  %sh_prom.i.i34 = zext nneg i32 %add.i.i33 to i64
  %shl.i.i35 = shl i64 %conv.i.i32, %sh_prom.i.i34
  br label %if.end18

if.end18:                                         ; preds = %if.end12, %if.end12.thread, %if.else15
  %observed_total_count.0.lcssa4957 = phi i64 [ %observed_total_count.1, %if.else15 ], [ 0, %if.end12.thread ], [ %observed_total_count.1, %if.end12 ]
  %shl.i.i35.sink = phi i64 [ %shl.i.i35, %if.else15 ], [ 9223372036854775807, %if.end12.thread ], [ 9223372036854775807, %if.end12 ]
  %16 = getelementptr inbounds i8, ptr %h, i64 48
  store i64 %shl.i.i35.sink, ptr %16, align 8
  %total_count = getelementptr inbounds i8, ptr %h, i64 88
  store i64 %observed_total_count.0.lcssa4957, ptr %total_count, align 8
  ret void
}